target datalayout = "e-m:e-p270:32:32-p271:32:32-p272:64:64-i64:64-i128:128-f80:128-n8:16:32:64-S128"
target triple = "x86_64-pc-linux-gnu"

%struct.wl_list = type { ptr, ptr }
%struct.SDL_CursorData = type { %union.anon.21, i8 }
%union.anon.21 = type { %struct.Wayland_CustomCursor }
%struct.Wayland_CustomCursor = type { ptr, i32, i32, %struct.wl_list }
%struct.Wayland_SystemCursor = type { ptr, i64, i32, i32 }
%struct.SDL_Cursor = type { ptr, ptr }

; Function Attrs: nounwind uwtable
define internal ptr @Wayland_CreateSystemCursor(i32 noundef %0) #0 {
  %2 = alloca ptr, align 8
  %3 = alloca i32, align 4
  %4 = alloca ptr, align 8
  %5 = alloca ptr, align 8
  %6 = alloca i32, align 4
  store i32 %0, ptr %3, align 4
  call void @llvm.lifetime.start.p0(i64 8, ptr %4) #7
  %7 = call noalias ptr @SDL_calloc_REAL(i64 noundef 1, i64 noundef 16) #8
  store ptr %7, ptr %4, align 8
  %8 = load ptr, ptr %4, align 8
  %9 = icmp ne ptr %8, null
  br i1 %9, label %10, label %29

10:                                               ; preds = %1
  call void @llvm.lifetime.start.p0(i64 8, ptr %5) #7
  %11 = call noalias ptr @SDL_calloc_REAL(i64 noundef 1, i64 noundef 40) #8
  store ptr %11, ptr %5, align 8
  %12 = load ptr, ptr %5, align 8
  %13 = icmp ne ptr %12, null
  br i1 %13, label %16, label %14

14:                                               ; preds = %10
  %15 = load ptr, ptr %4, align 8
  call void @SDL_free_REAL(ptr noundef %15)
  store ptr null, ptr %2, align 8
  store i32 1, ptr %6, align 4
  br label %26

16:                                               ; preds = %10
  %17 = load ptr, ptr %5, align 8
  %18 = load ptr, ptr %4, align 8
  %19 = getelementptr inbounds nuw %struct.SDL_Cursor, ptr %18, i32 0, i32 1
  store ptr %17, ptr %19, align 8
  %20 = load i32, ptr %3, align 4
  %21 = load ptr, ptr %5, align 8
  %22 = getelementptr inbounds nuw %struct.SDL_CursorData, ptr %21, i32 0, i32 0
  %23 = getelementptr inbounds nuw %struct.Wayland_SystemCursor, ptr %22, i32 0, i32 3
  store i32 %20, ptr %23, align 4
  %24 = load ptr, ptr %5, align 8
  %25 = getelementptr inbounds nuw %struct.SDL_CursorData, ptr %24, i32 0, i32 1
  store i8 1, ptr %25, align 8
  store i32 0, ptr %6, align 4
  br label %26

26:                                               ; preds = %16, %14
  call void @llvm.lifetime.end.p0(i64 8, ptr %5) #7
  %27 = load i32, ptr %6, align 4
  switch i32 %27, label %31 [
    i32 0, label %28
  ]

28:                                               ; preds = %26
  br label %29

29:                                               ; preds = %28, %1
  %30 = load ptr, ptr %4, align 8
  store ptr %30, ptr %2, align 8
  store i32 1, ptr %6, align 4
  br label %31

31:                                               ; preds = %29, %26
  call void @llvm.lifetime.end.p0(i64 8, ptr %4) #7
  %32 = load ptr, ptr %2, align 8
  ret ptr %32
}