; Function Attrs: nounwind uwtable
define internal noundef ptr @Wayland_CreateSystemCursor(i32 noundef %0) #0 {
  %2 = tail call noalias dereferenceable_or_null(16) ptr @SDL_calloc_REAL(i64 noundef 1, i64 noundef 16) #7
  %.not = icmp eq ptr %2, null
  br i1 %.not, label %9, label %3

3:                                                ; preds = %1
  %4 = tail call noalias dereferenceable_or_null(40) ptr @SDL_calloc_REAL(i64 noundef 1, i64 noundef 40) #7
  %.not13.not = icmp eq ptr %4, null
  br i1 %.not13.not, label %.thread, label %5

.thread:                                          ; preds = %3
  tail call void @SDL_free_REAL(ptr noundef nonnull %2) #6
  br label %9

5:                                                ; preds = %3
  %6 = getelementptr inbounds nuw i8, ptr %2, i64 8
  store ptr %4, ptr %6, align 8
  %7 = getelementptr inbounds nuw i8, ptr %4, i64 20
  store i32 %0, ptr %7, align 4
  %8 = getelementptr inbounds nuw i8, ptr %4, i64 32
  store i8 1, ptr %8, align 8
  br label %9

9:                                                ; preds = %1, %5, %.thread
  %.1 = phi ptr [ null, %.thread ], [ %2, %5 ], [ null, %1 ]
  ret ptr %.1
}